; Function Attrs: mustprogress uwtable
define hidden noundef zeroext i1 @_ZNK3sat17integrity_checker21check_learned_clausesEv(ptr nocapture noundef nonnull readonly align 8 dereferenceable(8) %this) local_unnamed_addr #4 align 2 {
entry:
  %0 = load ptr, ptr %this, align 8
  %m_clauses.i = getelementptr inbounds i8, ptr %0, i64 3376
  %1 = load ptr, ptr %m_clauses.i, align 8
  %cmp.i.i.i = icmp eq ptr %1, null
  br i1 %cmp.i.i.i, label %for.end, label %_ZNK3sat6solver11end_clausesEv.exit

_ZNK3sat6solver11end_clausesEv.exit:              ; preds = %entry
  %arrayidx.i.i.i = getelementptr inbounds i8, ptr %1, i64 -4
  %2 = load i32, ptr %arrayidx.i.i.i, align 4
  %3 = zext i32 %2 to i64
  %add.ptr.i.i = getelementptr inbounds ptr, ptr %1, i64 %3
  %cmp.not11 = icmp eq i32 %2, 0
  br i1 %cmp.not11, label %for.end, label %for.body

for.body:                                         ; preds = %_ZNK3sat6solver11end_clausesEv.exit, %for.body
  %num_frozen.013 = phi i32 [ %spec.select, %for.body ], [ 0, %_ZNK3sat6solver11end_clausesEv.exit ]
  %it.012 = phi ptr [ %incdec.ptr, %for.body ], [ %1, %_ZNK3sat6solver11end_clausesEv.exit ]
  %4 = load ptr, ptr %it.012, align 8
  %m_frozen.i = getelementptr inbounds i8, ptr %4, i64 16
  %bf.load.i = load i32, ptr %m_frozen.i, align 4
  %5 = lshr i32 %bf.load.i, 4
  %6 = and i32 %5, 1
  %spec.select = add i32 %6, %num_frozen.013
  %incdec.ptr = getelementptr inbounds i8, ptr %it.012, i64 8
  %cmp.not = icmp eq ptr %incdec.ptr, %add.ptr.i.i
  br i1 %cmp.not, label %for.end, label %for.body, !llvm.loop !9

for.end:                                          ; preds = %for.body, %entry, %_ZNK3sat6solver11end_clausesEv.exit
  %num_frozen.0.lcssa = phi i32 [ 0, %_ZNK3sat6solver11end_clausesEv.exit ], [ 0, %entry ], [ %spec.select, %for.body ]
  %m_num_frozen = getelementptr inbounds i8, ptr %0, i64 3392
  %7 = load i32, ptr %m_num_frozen, align 8
  %cmp6 = icmp eq i32 %num_frozen.0.lcssa, %7
  br i1 %cmp6, label %if.end8, label %if.then7

if.then7:                                         ; preds = %for.end
  tail call void @_Z26notify_assertion_violationPKciS0_(ptr noundef nonnull @.str, i32 noundef 110, ptr noundef nonnull @.str.10)
  tail call void @exit(i32 noundef 114) #15
  unreachable

if.end8:                                          ; preds = %for.end
  %m_learned.i = getelementptr inbounds i8, ptr %0, i64 3384
  %8 = load ptr, ptr %m_learned.i, align 8
  %cmp.i.i.i6 = icmp eq ptr %8, null
  br i1 %cmp.i.i.i6, label %_ZNK3sat17integrity_checker13check_clausesEPKPNS_6clauseES4_.exit, label %_ZNK3sat6solver11end_learnedEv.exit

_ZNK3sat6solver11end_learnedEv.exit:              ; preds = %if.end8
  %arrayidx.i.i.i8 = getelementptr inbounds i8, ptr %8, i64 -4
  %9 = load i32, ptr %arrayidx.i.i.i8, align 4
  %10 = zext i32 %9 to i64
  %add.ptr.i.i10 = getelementptr inbounds ptr, ptr %8, i64 %10
  %cmp.not3.i = icmp eq i32 %9, 0
  br i1 %cmp.not3.i, label %_ZNK3sat17integrity_checker13check_clausesEPKPNS_6clauseES4_.exit, label %for.body.i

for.body.i:                                       ; preds = %_ZNK3sat6solver11end_learnedEv.exit, %for.body.i
  %it.04.i = phi ptr [ %incdec.ptr.i, %for.body.i ], [ %8, %_ZNK3sat6solver11end_learnedEv.exit ]
  %11 = load ptr, ptr %it.04.i, align 8
  %call.i = tail call noundef zeroext i1 @_ZNK3sat17integrity_checker12check_clauseERKNS_6clauseE(ptr noundef nonnull align 8 dereferenceable(8) %this, ptr noundef nonnull align 4 dereferenceable(20) %11)
  %incdec.ptr.i = getelementptr inbounds i8, ptr %it.04.i, i64 8
  %cmp.not.i = icmp eq ptr %incdec.ptr.i, %add.ptr.i.i10
  br i1 %cmp.not.i, label %_ZNK3sat17integrity_checker13check_clausesEPKPNS_6clauseES4_.exit, label %for.body.i, !llvm.loop !8

_ZNK3sat17integrity_checker13check_clausesEPKPNS_6clauseES4_.exit: ; preds = %for.body.i, %if.end8, %_ZNK3sat6solver11end_learnedEv.exit
  ret i1 true
}